-----BEGIN PRIVATE KEY-----
MIICdgIBADANBgkqhkiG9w0BAQEFAASCAmAwggJcAgEAAoGBALinwFqlBPu0m8ox
RUhAmOh5icDKZKXYjUKNYrkp5WKFanpb/dejRupRYVoH7O+CzX6N9iPcHP51bBM9
+4+y+2l8ONXy8WukynqjcudHwZNs7fLLTeQ+LcbV3JXCB+JAGZJqyGOUf455iB+6
o+kkyrZb0vfOs5Ix78WewNmSRbF1AgMBAAECgYBKjNd5ASSo5nr7P7cj+4iAWwlF
f7Dw0CP/2YshDIwioZCig99RHwdzdJWkPoznCd0jGfdk9Onzxb5zalPU6ULc28JH
rKtIuD8LvIkrI5JwKttOnSWR7T/lctuKxmbHpxNd5NI+QyZoGnjiRMy4cOOjZp1y
hc1Y9LZnKJ3zoDnppQJBAPV8wIW+9o9lySHwOe/FeL02cYE9G1ANItywrBekhPGp
YS0Ddc1FXb2kuNfpMdsNHeziN5mXM6ceEodeK97Cuc8CQQDAkBrkw/OS7G3SO5hy
jDYc91uW+5hcl7fKcwovWd9YLl8K5Ru0C1cCwqTIK67YYiuXyo0cCxJ25OWOybCI
zKV7AkEA8jedXloFvYeY5Tu6brJRZ6CIbhR1Fo9fjpFjvBBAfJG7qEZ5vYhr7erR
13foEVLn7AtpAMsH1CT/80Ef2DQaUQJAWTOoMacQM1Rwvz26Lf4Dp0Fy3SspdmMV
0aOe6TZxvvCkOHDPd4T1RqMSIGQT98rqNMOwwHfkks0QBigqLgTW9wJAN4FBSmDV
/jUR1Ujj1szPBViwpSPYuWaGdptOXyrn1GciRqTltuaw+Hz7zZu/OsiYK9kHmR6J
Vst1ElG/gV/A0w==
-----END PRIVATE KEY-----
Certificate:
    Data:
        Version: 1 (0x0)
        Serial Number: 21701 (0x54c5)
    Signature Algorithm: md5WithRSAEncryption
        Issuer: C=US, ST=California, L=Marina Del Rey, O=DETER Network Security Testbed, OU=Certificate Authority, CN=boss.isi.deterlab.net/emailAddress=testbed-ops@isi.deterlab.net
        Validity
            Not Before: Jan 20 18:21:14 2017 GMT
            Not After : Oct 17 18:21:14 2019 GMT
        Subject: C=US, ST=California, O=DETER Network Security Testbed, OU=sslxmlrpc, CN=4f086d87-af01-11df-964a-000423c28e76/emailAddress=cos356bf@isi.deterlab.net
        Subject Public Key Info:
            Public Key Algorithm: rsaEncryption
                Public-Key: (1024 bit)
                Modulus:
                    00:b8:a7:c0:5a:a5:04:fb:b4:9b:ca:31:45:48:40:
                    98:e8:79:89:c0:ca:64:a5:d8:8d:42:8d:62:b9:29:
                    e5:62:85:6a:7a:5b:fd:d7:a3:46:ea:51:61:5a:07:
                    ec:ef:82:cd:7e:8d:f6:23:dc:1c:fe:75:6c:13:3d:
                    fb:8f:b2:fb:69:7c:38:d5:f2:f1:6b:a4:ca:7a:a3:
                    72:e7:47:c1:93:6c:ed:f2:cb:4d:e4:3e:2d:c6:d5:
                    dc:95:c2:07:e2:40:19:92:6a:c8:63:94:7f:8e:79:
                    88:1f:ba:a3:e9:24:ca:b6:5b:d2:f7:ce:b3:92:31:
                    ef:c5:9e:c0:d9:92:45:b1:75
                Exponent: 65537 (0x10001)
    Signature Algorithm: md5WithRSAEncryption
         ab:90:79:ac:73:54:6e:11:4c:78:5b:6a:47:d2:e4:e5:e0:76:
         76:50:0c:28:61:9b:c9:f6:9a:15:b0:11:6b:ff:e7:0a:3f:d2:
         88:75:88:2c:5e:d0:59:52:9f:8f:94:4b:8f:bc:eb:5c:e5:70:
         df:a6:e4:fa:b6:7b:c0:ae:1c:1c:19:18:55:ea:b3:66:09:80:
         4b:39:2a:18:f4:1d:48:01:fd:9a:12:31:b5:13:1f:22:90:5d:
         61:39:08:b6:c6:e5:c2:6a:d1:a8:da:2d:9a:ff:75:7f:0b:cf:
         e8:cb:05:61:fc:94:f0:eb:d2:33:70:7c:eb:cc:29:1f:0e:4f:
         48:5c
-----BEGIN CERTIFICATE-----
MIIC+zCCAmQCAlTFMA0GCSqGSIb3DQEBBAUAMIHRMQswCQYDVQQGEwJVUzETMBEG
A1UECBMKQ2FsaWZvcm5pYTEXMBUGA1UEBxMOTWFyaW5hIERlbCBSZXkxJzAlBgNV
BAoTHkRFVEVSIE5ldHdvcmsgU2VjdXJpdHkgVGVzdGJlZDEeMBwGA1UECxMVQ2Vy
dGlmaWNhdGUgQXV0aG9yaXR5MR4wHAYDVQQDExVib3NzLmlzaS5kZXRlcmxhYi5u
ZXQxKzApBgkqhkiG9w0BCQEWHHRlc3RiZWQtb3BzQGlzaS5kZXRlcmxhYi5uZXQw
HhcNMTcwMTIwMTgyMTE0WhcNMTkxMDE3MTgyMTE0WjCBuDELMAkGA1UEBhMCVVMx
EzARBgNVBAgTCkNhbGlmb3JuaWExJzAlBgNVBAoTHkRFVEVSIE5ldHdvcmsgU2Vj
dXJpdHkgVGVzdGJlZDESMBAGA1UECxMJc3NseG1scnBjMS0wKwYDVQQDEyQ0ZjA4
NmQ4Ny1hZjAxLTExZGYtOTY0YS0wMDA0MjNjMjhlNzYxKDAmBgkqhkiG9w0BCQEW
GWNvczM1NmJmQGlzaS5kZXRlcmxhYi5uZXQwgZ8wDQYJKoZIhvcNAQEBBQADgY0A
MIGJAoGBALinwFqlBPu0m8oxRUhAmOh5icDKZKXYjUKNYrkp5WKFanpb/dejRupR
YVoH7O+CzX6N9iPcHP51bBM9+4+y+2l8ONXy8WukynqjcudHwZNs7fLLTeQ+LcbV
3JXCB+JAGZJqyGOUf455iB+6o+kkyrZb0vfOs5Ix78WewNmSRbF1AgMBAAEwDQYJ
KoZIhvcNAQEEBQADgYEAq5B5rHNUbhFMeFtqR9Lk5eB2dlAMKGGbyfaaFbARa//n
Cj/SiHWILF7QWVKfj5RLj7zrXOVw36bk+rZ7wK4cHBkYVeqzZgmASzkqGPQdSAH9
mhIxtRMfIpBdYTkItsblwmrRqNotmv91fwvP6MsFYfyU8OvSM3B868wpHw5PSFw=
-----END CERTIFICATE-----
